target datalayout = "e-m:e-p270:32:32-p271:32:32-p272:64:64-i64:64-i128:128-f80:128-n8:16:32:64-S128"
target triple = "x86_64-pc-linux-gnu"

%"class.std::_Sp_counted_base" = type { ptr, i32, i32 }
%"class.std::_Sp_counted_ptr.493" = type { %"class.std::_Sp_counted_base", ptr }

; Function Attrs: mustprogress nounwind optsize uwtable
define internal void @_ZNSt15_Sp_counted_ptrIPZL30nanobind_init_test_holders_extRN8nanobind7module_EE15AnotherSubclassLN9__gnu_cxx12_Lock_policyE2EE10_M_disposeEv(ptr noundef nonnull align 8 dereferenceable(24) %0) unnamed_addr #8 align 2 {
  %2 = alloca ptr, align 8
  store ptr %0, ptr %2, align 8, !tbaa !922
  %3 = load ptr, ptr %2, align 8
  %4 = getelementptr inbounds nuw %"class.std::_Sp_counted_ptr.493", ptr %3, i32 0, i32 1
  %5 = load ptr, ptr %4, align 8, !tbaa !924
  %6 = icmp eq ptr %5, null
  br i1 %6, label %8, label %7

7:                                                ; preds = %1
  call void @_ZdlPvm(ptr noundef %5, i64 noundef 1) #24
  br label %8

8:                                                ; preds = %7, %1
  ret void
}